; Function Attrs: nounwind uwtable
define void @gvrender_end_page(ptr noundef %0) local_unnamed_addr #0 {
  %2 = getelementptr inbounds nuw i8, ptr %0, i64 120
  %3 = load ptr, ptr %2, align 8, !tbaa !47
  %.not = icmp eq ptr %3, null
  br i1 %.not, label %8, label %4

4:                                                ; preds = %1
  %5 = getelementptr inbounds nuw i8, ptr %3, i64 56
  %6 = load ptr, ptr %5, align 8, !tbaa !83
  %.not6 = icmp eq ptr %6, null
  br i1 %.not6, label %8, label %7

7:                                                ; preds = %4
  tail call void %6(ptr noundef nonnull %0) #22
  br label %8

8:                                                ; preds = %4, %7, %1
  ret void
}